; Function Attrs: mustprogress nofree norecurse nosync nounwind willreturn memory(argmem: read) uwtable
define i32 @mz_zip_reader_get_num_files(ptr noundef readonly captures(address_is_null) %0) local_unnamed_addr #11 {
  %.not = icmp eq ptr %0, null
  br i1 %.not, label %5, label %2

2:                                                ; preds = %1
  %3 = getelementptr inbounds nuw i8, ptr %0, i64 16
  %4 = load i32, ptr %3, align 8
  br label %5

5:                                                ; preds = %1, %2
  %6 = phi i32 [ %4, %2 ], [ 0, %1 ]
  ret i32 %6
}